target datalayout = "e-m:e-p270:32:32-p271:32:32-p272:64:64-i64:64-i128:128-f80:128-n8:16:32:64-S128"
target triple = "x86_64-pc-linux-gnu"

%struct.H5VL_object_t = type { ptr, ptr, i64 }

@H5_libinit_g = external global i8, align 1
@H5_libterm_g = external global i8, align 1
@.str = private unnamed_addr constant [97 x i8] c"generated/home/dtcxzyw/WorkSpace/Projects/compilers/llvm-opt-benchmark/bench/hdf5/hdf5/src/H5R.c\00", align 1
@H5E_FUNC_g = external global i64, align 8
@H5E_CANTINIT_g = external global i64, align 8
@.str.1 = private unnamed_addr constant [30 x i8] c"library initialization failed\00", align 1
@H5E_CANTSET_g = external global i64, align 8
@.str.2 = private unnamed_addr constant [22 x i8] c"can't set API context\00", align 1
@H5E_REFERENCE_g = external global i64, align 8
@H5E_CANTDEC_g = external global i64, align 8
@.str.25 = private unnamed_addr constant [13 x i8] c"*s*sIu*Rriii\00", align 1
@.str.26 = private unnamed_addr constant [9 x i8] c"app_file\00", align 1
@.str.27 = private unnamed_addr constant [9 x i8] c"app_func\00", align 1
@.str.28 = private unnamed_addr constant [9 x i8] c"app_line\00", align 1
@.str.29 = private unnamed_addr constant [8 x i8] c"ref_ptr\00", align 1
@.str.30 = private unnamed_addr constant [8 x i8] c"rapl_id\00", align 1
@.str.32 = private unnamed_addr constant [6 x i8] c"es_id\00", align 1
@H5E_CANTINSERT_g = external global i64, align 8
@.str.34 = private unnamed_addr constant [34 x i8] c"can't insert token into event set\00", align 1
@H5E_OPENERROR_g = external global i64, align 8
@__func__.H5Ropen_attr_async = private unnamed_addr constant [19 x i8] c"H5Ropen_attr_async\00", align 1
@.str.39 = private unnamed_addr constant [40 x i8] c"unable to open attribute asynchronously\00", align 1
@.str.40 = private unnamed_addr constant [8 x i8] c"aapl_id\00", align 1
@.str.41 = private unnamed_addr constant [38 x i8] c"can't decrement count on attribute ID\00", align 1

; Function Attrs: nounwind uwtable
define i64 @H5Ropen_attr_async(ptr noundef %0, ptr noundef %1, i32 noundef %2, ptr noundef %3, i64 noundef %4, i64 noundef %5, i64 noundef %6) #0 {
  %8 = alloca ptr, align 8
  %9 = alloca ptr, align 8
  %10 = alloca i32, align 4
  %11 = alloca ptr, align 8
  %12 = alloca i64, align 8
  %13 = alloca i64, align 8
  %14 = alloca i64, align 8
  %15 = alloca ptr, align 8
  %16 = alloca ptr, align 8
  %17 = alloca ptr, align 8
  %18 = alloca i64, align 8
  %19 = alloca i8, align 1
  %20 = alloca i8, align 1
  store ptr %0, ptr %8, align 8
  store ptr %1, ptr %9, align 8
  store i32 %2, ptr %10, align 4
  store ptr %3, ptr %11, align 8
  store i64 %4, ptr %12, align 8
  store i64 %5, ptr %13, align 8
  store i64 %6, ptr %14, align 8
  store ptr null, ptr %15, align 8
  store ptr null, ptr %16, align 8
  store ptr null, ptr %17, align 8
  store i8 0, ptr %19, align 1
  store i8 0, ptr %20, align 1
  %21 = load i8, ptr @H5_libinit_g, align 1
  %22 = trunc i8 %21 to i1
  br i1 %22, label %27, label %23

23:                                               ; preds = %7
  %24 = load i8, ptr @H5_libterm_g, align 1
  %25 = trunc i8 %24 to i1
  %26 = xor i1 %25, true
  br label %27

27:                                               ; preds = %23, %7
  %28 = phi i1 [ false, %7 ], [ %26, %23 ]
  %29 = xor i1 %28, true
  %30 = xor i1 %29, true
  %31 = zext i1 %30 to i32
  %32 = sext i32 %31 to i64
  %33 = icmp ne i64 %32, 0
  br i1 %33, label %34, label %58

34:                                               ; preds = %27
  %35 = call i32 @H5_init_library()
  %36 = icmp slt i32 %35, 0
  %37 = xor i1 %36, true
  %38 = xor i1 %37, true
  %39 = zext i1 %38 to i32
  %40 = sext i32 %39 to i64
  %41 = icmp ne i64 %40, 0
  br i1 %41, label %42, label %57

42:                                               ; preds = %34
  br label %43

43:                                               ; preds = %42
  br label %44

44:                                               ; preds = %43
  br label %45

45:                                               ; preds = %44
  %46 = load i64, ptr @H5E_FUNC_g, align 8
  %47 = load i64, ptr @H5E_CANTINIT_g, align 8
  %48 = call i32 (ptr, ptr, i32, i64, i64, ptr, ...) @H5E_printf_stack(ptr noundef @.str, ptr noundef @__func__.H5Ropen_attr_async, i32 noundef 922, i64 noundef %46, i64 noundef %47, ptr noundef @.str.1)
  br label %49

49:                                               ; preds = %45
  store i8 1, ptr %20, align 1
  %50 = load i8, ptr %20, align 1
  %51 = trunc i8 %50 to i1
  %52 = zext i1 %51 to i8
  store i8 %52, ptr %20, align 1
  br label %53

53:                                               ; preds = %49
  br label %54

54:                                               ; preds = %53
  store i64 -1, ptr %18, align 8
  br label %163

55:                                               ; No predecessors!
  br label %56

56:                                               ; preds = %55
  br label %57

57:                                               ; preds = %56, %34
  br label %58

58:                                               ; preds = %57, %27
  %59 = call i32 @H5CX_push()
  %60 = icmp slt i32 %59, 0
  %61 = xor i1 %60, true
  %62 = xor i1 %61, true
  %63 = zext i1 %62 to i32
  %64 = sext i32 %63 to i64
  %65 = icmp ne i64 %64, 0
  br i1 %65, label %66, label %81

66:                                               ; preds = %58
  br label %67

67:                                               ; preds = %66
  br label %68

68:                                               ; preds = %67
  br label %69

69:                                               ; preds = %68
  %70 = load i64, ptr @H5E_FUNC_g, align 8
  %71 = load i64, ptr @H5E_CANTSET_g, align 8
  %72 = call i32 (ptr, ptr, i32, i64, i64, ptr, ...) @H5E_printf_stack(ptr noundef @.str, ptr noundef @__func__.H5Ropen_attr_async, i32 noundef 922, i64 noundef %70, i64 noundef %71, ptr noundef @.str.2)
  br label %73

73:                                               ; preds = %69
  store i8 1, ptr %20, align 1
  %74 = load i8, ptr %20, align 1
  %75 = trunc i8 %74 to i1
  %76 = zext i1 %75 to i8
  store i8 %76, ptr %20, align 1
  br label %77

77:                                               ; preds = %73
  br label %78

78:                                               ; preds = %77
  store i64 -1, ptr %18, align 8
  br label %163

79:                                               ; No predecessors!
  br label %80

80:                                               ; preds = %79
  br label %82

81:                                               ; preds = %58
  store i8 1, ptr %19, align 1
  br label %82

82:                                               ; preds = %81, %80
  %83 = call i32 @H5E_clear_stack()
  %84 = load i64, ptr %14, align 8
  %85 = icmp ne i64 0, %84
  br i1 %85, label %86, label %87

86:                                               ; preds = %82
  store ptr %16, ptr %17, align 8
  br label %87

87:                                               ; preds = %86, %82
  %88 = load ptr, ptr %11, align 8
  %89 = load i64, ptr %12, align 8
  %90 = load i64, ptr %13, align 8
  %91 = load ptr, ptr %17, align 8
  %92 = call i64 @H5R__open_attr_api_common(ptr noundef %88, i64 noundef %89, i64 noundef %90, ptr noundef %91, ptr noundef %15)
  store i64 %92, ptr %18, align 8
  %93 = icmp slt i64 %92, 0
  br i1 %93, label %94, label %109

94:                                               ; preds = %87
  br label %95

95:                                               ; preds = %94
  br label %96

96:                                               ; preds = %95
  br label %97

97:                                               ; preds = %96
  %98 = load i64, ptr @H5E_REFERENCE_g, align 8
  %99 = load i64, ptr @H5E_OPENERROR_g, align 8
  %100 = call i32 (ptr, ptr, i32, i64, i64, ptr, ...) @H5E_printf_stack(ptr noundef @.str, ptr noundef @__func__.H5Ropen_attr_async, i32 noundef 930, i64 noundef %98, i64 noundef %99, ptr noundef @.str.39)
  br label %101

101:                                              ; preds = %97
  store i8 1, ptr %20, align 1
  %102 = load i8, ptr %20, align 1
  %103 = trunc i8 %102 to i1
  %104 = zext i1 %103 to i8
  store i8 %104, ptr %20, align 1
  br label %105

105:                                              ; preds = %101
  br label %106

106:                                              ; preds = %105
  store i64 -1, ptr %18, align 8
  br label %163

107:                                              ; No predecessors!
  br label %108

108:                                              ; preds = %107
  br label %109

109:                                              ; preds = %108, %87
  %110 = load ptr, ptr %16, align 8
  %111 = icmp ne ptr null, %110
  br i1 %111, label %112, label %162

112:                                              ; preds = %109
  %113 = load i64, ptr %14, align 8
  %114 = load ptr, ptr %15, align 8
  %115 = getelementptr inbounds %struct.H5VL_object_t, ptr %114, i32 0, i32 1
  %116 = load ptr, ptr %115, align 8
  %117 = load ptr, ptr %16, align 8
  %118 = load ptr, ptr %8, align 8
  %119 = load ptr, ptr %9, align 8
  %120 = load i32, ptr %10, align 4
  %121 = load ptr, ptr %11, align 8
  %122 = load i64, ptr %12, align 8
  %123 = load i64, ptr %13, align 8
  %124 = load i64, ptr %14, align 8
  %125 = call i32 (i64, ptr, ptr, ptr, ptr, ...) @H5ES_insert(i64 noundef %113, ptr noundef %116, ptr noundef %117, ptr noundef @__func__.H5Ropen_attr_async, ptr noundef @.str.25, ptr noundef @.str.26, ptr noundef %118, ptr noundef @.str.27, ptr noundef %119, ptr noundef @.str.28, i32 noundef %120, ptr noundef @.str.29, ptr noundef %121, ptr noundef @.str.30, i64 noundef %122, ptr noundef @.str.40, i64 noundef %123, ptr noundef @.str.32, i64 noundef %124)
  %126 = icmp slt i32 %125, 0
  br i1 %126, label %127, label %161

127:                                              ; preds = %112
  %128 = load i64, ptr %18, align 8
  %129 = call i32 @H5I_dec_app_ref_always_close(i64 noundef %128)
  %130 = icmp slt i32 %129, 0
  br i1 %130, label %131, label %146

131:                                              ; preds = %127
  br label %132

132:                                              ; preds = %131
  br label %133

133:                                              ; preds = %132
  br label %134

134:                                              ; preds = %133
  %135 = load i64, ptr @H5E_REFERENCE_g, align 8
  %136 = load i64, ptr @H5E_CANTDEC_g, align 8
  %137 = call i32 (ptr, ptr, i32, i64, i64, ptr, ...) @H5E_printf_stack(ptr noundef @.str, ptr noundef @__func__.H5Ropen_attr_async, i32 noundef 940, i64 noundef %135, i64 noundef %136, ptr noundef @.str.41)
  br label %138

138:                                              ; preds = %134
  store i8 1, ptr %20, align 1
  %139 = load i8, ptr %20, align 1
  %140 = trunc i8 %139 to i1
  %141 = zext i1 %140 to i8
  store i8 %141, ptr %20, align 1
  br label %142

142:                                              ; preds = %138
  br label %143

143:                                              ; preds = %142
  store i64 -1, ptr %18, align 8
  br label %163

144:                                              ; No predecessors!
  br label %145

145:                                              ; preds = %144
  br label %146

146:                                              ; preds = %145, %127
  br label %147

147:                                              ; preds = %146
  br label %148

148:                                              ; preds = %147
  br label %149

149:                                              ; preds = %148
  %150 = load i64, ptr @H5E_REFERENCE_g, align 8
  %151 = load i64, ptr @H5E_CANTINSERT_g, align 8
  %152 = call i32 (ptr, ptr, i32, i64, i64, ptr, ...) @H5E_printf_stack(ptr noundef @.str, ptr noundef @__func__.H5Ropen_attr_async, i32 noundef 941, i64 noundef %150, i64 noundef %151, ptr noundef @.str.34)
  br label %153

153:                                              ; preds = %149
  store i8 1, ptr %20, align 1
  %154 = load i8, ptr %20, align 1
  %155 = trunc i8 %154 to i1
  %156 = zext i1 %155 to i8
  store i8 %156, ptr %20, align 1
  br label %157

157:                                              ; preds = %153
  br label %158

158:                                              ; preds = %157
  store i64 -1, ptr %18, align 8
  br label %163

159:                                              ; No predecessors!
  br label %160

160:                                              ; preds = %159
  br label %161

161:                                              ; preds = %160, %112
  br label %162

162:                                              ; preds = %161, %109
  br label %163

163:                                              ; preds = %162, %158, %143, %106, %78, %54
  %164 = load i8, ptr %19, align 1
  %165 = trunc i8 %164 to i1
  %166 = xor i1 %165, true
  %167 = xor i1 %166, true
  %168 = zext i1 %167 to i32
  %169 = sext i32 %168 to i64
  %170 = icmp ne i64 %169, 0
  br i1 %170, label %171, label %173

171:                                              ; preds = %163
  %172 = call i32 @H5CX_pop(i1 noundef zeroext true)
  store i8 0, ptr %19, align 1
  br label %173

173:                                              ; preds = %171, %163
  %174 = load i8, ptr %20, align 1
  %175 = trunc i8 %174 to i1
  %176 = xor i1 %175, true
  %177 = xor i1 %176, true
  %178 = zext i1 %177 to i32
  %179 = sext i32 %178 to i64
  %180 = icmp ne i64 %179, 0
  br i1 %180, label %181, label %183

181:                                              ; preds = %173
  %182 = call i32 @H5E_dump_api_stack()
  br label %183

183:                                              ; preds = %181, %173
  %184 = load i64, ptr %18, align 8
  ret i64 %184
}